; Function Attrs: mustprogress nounwind uwtable
define hidden void @_ZN5boost9container3pmr13pool_resourceC2Ev(ptr noundef nonnull align 8 dereferenceable(56) %0) unnamed_addr #6 align 2 personality ptr @__gxx_personality_v0 {
  tail call void @llvm.memset.p0.i64(ptr noundef nonnull align 8 dereferenceable(16) %0, i8 0, i64 16, i1 false)
  %2 = getelementptr inbounds nuw i8, ptr %0, i64 16
  %3 = tail call noundef ptr @_ZN5boost9container3pmr20get_default_resourceEv() #18
  store ptr %3, ptr %2, align 8, !tbaa !26
  %4 = getelementptr inbounds nuw i8, ptr %0, i64 24
  store ptr %4, ptr %4, align 8, !tbaa !27
  %5 = getelementptr inbounds nuw i8, ptr %0, i64 32
  store ptr %4, ptr %5, align 8, !tbaa !28
  %6 = getelementptr inbounds nuw i8, ptr %0, i64 40
  tail call void @llvm.memset.p0.i64(ptr noundef nonnull align 8 dereferenceable(16) %6, i8 0, i64 16, i1 false)
  %7 = load i64, ptr %0, align 8, !tbaa !3
  %.not.i.i.i = icmp eq i64 %7, 0
  %.sroa.speculated.i.i.i = tail call i64 @llvm.umin.i64(i64 %7, i64 32)
  %storemerge.i.i.i = select i1 %.not.i.i.i, i64 32, i64 %.sroa.speculated.i.i.i
  store i64 %storemerge.i.i.i, ptr %0, align 8, !tbaa !3
  %8 = getelementptr inbounds nuw i8, ptr %0, i64 8
  %9 = load i64, ptr %8, align 8, !tbaa !3
  %.not.i1.i.i = icmp eq i64 %9, 0
  br i1 %.not.i1.i.i, label %14, label %10

10:                                               ; preds = %1
  %11 = icmp ult i64 %9, 16
  br i1 %11, label %14, label %12

12:                                               ; preds = %10
  %.sroa.speculated.i2.i.i = tail call i64 @llvm.umin.i64(i64 %9, i64 4096)
  %13 = add nsw i64 %.sroa.speculated.i2.i.i, -1
  br label %14

14:                                               ; preds = %12, %10, %1
  %storemerge.i3.i.i = phi i64 [ 4095, %1 ], [ %13, %12 ], [ 15, %10 ]
  %15 = tail call range(i64 0, 65) i64 @llvm.ctlz.i64(i64 %storemerge.i3.i.i, i1 false)
  %16 = sub nuw nsw i64 64, %15
  %17 = shl nuw nsw i64 1, %16
  store i64 %17, ptr %8, align 8, !tbaa !7
  ret void
}